; Function Attrs: nounwind uwtable
define internal noalias ptr @ecxkem_newctx(ptr noundef %0) #0 {
  %2 = tail call noalias ptr @CRYPTO_zalloc(i64 noundef 72, ptr noundef nonnull @.str, i32 noundef 160) #5
  %3 = icmp eq ptr %2, null
  br i1 %3, label %7, label %4

4:                                                ; preds = %1
  %5 = tail call ptr @ossl_prov_ctx_get0_libctx(ptr noundef %0) #5
  %6 = getelementptr inbounds nuw i8, ptr %2, i64 16
  store ptr %5, ptr %6, align 8, !tbaa !22
  br label %7

7:                                                ; preds = %1, %4
  ret ptr %2
}